; Function Attrs: nofree nounwind uwtable
define internal void @__cxx_global_var_init.1() #0 section ".text.startup" comdat($_ZN5boost4noneE) personality ptr @__gxx_personality_v0 {
entry:
  %0 = load atomic i8, ptr @_ZGVN5boost4noneE acquire, align 8
  %guard.uninitialized = icmp eq i8 %0, 0
  br i1 %guard.uninitialized, label %init.check, label %init.end

init.check:                                       ; preds = %entry
  %1 = tail call i32 @__cxa_guard_acquire(ptr nonnull @_ZGVN5boost4noneE) #22
  %tobool.not = icmp eq i32 %1, 0
  br i1 %tobool.not, label %init.end, label %init

init:                                             ; preds = %init.check
  tail call void @__cxa_guard_release(ptr nonnull @_ZGVN5boost4noneE) #22
  br label %init.end

init.end:                                         ; preds = %init, %init.check, %entry
  ret void
}